target datalayout = "e-m:e-p270:32:32-p271:32:32-p272:64:64-i64:64-i128:128-f80:128-n8:16:32:64-S128"
target triple = "x86_64-pc-linux-gnu"

%struct.lxb_html_tree = type { ptr, ptr, ptr, ptr, ptr, ptr, ptr, %struct.lxb_html_tree_pending_table_t, ptr, i8, i8, i8, i8, i8, i8, ptr, ptr, ptr, i32, i64 }
%struct.lxb_html_tree_pending_table_t = type { ptr, i8 }
%struct.lxb_dom_node = type { %struct.lxb_dom_event_target, i64, i64, i64, ptr, ptr, ptr, ptr, ptr, ptr, ptr, i32, i64 }
%struct.lxb_dom_event_target = type { ptr }
%struct.lxb_html_token_t = type { ptr, ptr, i64, i64, ptr, ptr, ptr, ptr, ptr, i64, i64, i32 }
%struct.lxb_dom_attr = type { %struct.lxb_dom_node, i64, i64, ptr, ptr, ptr, ptr }
%struct.lxb_dom_element = type { %struct.lxb_dom_node, i64, i64, ptr, ptr, ptr, ptr, ptr, i32 }

; Function Attrs: nounwind uwtable
define hidden i32 @lxb_html_tree_append_attributes_from_element(ptr noundef %0, ptr noundef %1, ptr noundef %2, i64 noundef %3) #0 {
  %5 = alloca i32, align 4
  %6 = alloca ptr, align 8
  %7 = alloca ptr, align 8
  %8 = alloca ptr, align 8
  %9 = alloca i64, align 8
  %10 = alloca i32, align 4
  %11 = alloca ptr, align 8
  %12 = alloca ptr, align 8
  store ptr %0, ptr %6, align 8
  store ptr %1, ptr %7, align 8
  store ptr %2, ptr %8, align 8
  store i64 %3, ptr %9, align 8
  %13 = load ptr, ptr %8, align 8
  %14 = getelementptr inbounds %struct.lxb_dom_element, ptr %13, i32 0, i32 4
  %15 = load ptr, ptr %14, align 8
  store ptr %15, ptr %11, align 8
  br label %16

16:                                               ; preds = %60, %4
  %17 = load ptr, ptr %11, align 8
  %18 = icmp ne ptr %17, null
  br i1 %18, label %19, label %67

19:                                               ; preds = %16
  %20 = load ptr, ptr %7, align 8
  %21 = getelementptr inbounds %struct.lxb_dom_element, ptr %20, i32 0, i32 0
  %22 = getelementptr inbounds %struct.lxb_dom_node, ptr %21, i32 0, i32 4
  %23 = load ptr, ptr %22, align 8
  %24 = call ptr @lxb_dom_attr_interface_create(ptr noundef %23)
  store ptr %24, ptr %12, align 8
  %25 = load ptr, ptr %12, align 8
  %26 = icmp eq ptr %25, null
  br i1 %26, label %27, label %28

27:                                               ; preds = %19
  store i32 2, ptr %5, align 4
  br label %68

28:                                               ; preds = %19
  %29 = load ptr, ptr %11, align 8
  %30 = load ptr, ptr %12, align 8
  %31 = call i32 @lxb_dom_attr_clone_name_value(ptr noundef %29, ptr noundef %30)
  store i32 %31, ptr %10, align 4
  %32 = load i32, ptr %10, align 4
  %33 = icmp ne i32 %32, 0
  br i1 %33, label %34, label %36

34:                                               ; preds = %28
  %35 = load i32, ptr %10, align 4
  store i32 %35, ptr %5, align 4
  br label %68

36:                                               ; preds = %28
  %37 = load ptr, ptr %11, align 8
  %38 = getelementptr inbounds %struct.lxb_dom_attr, ptr %37, i32 0, i32 0
  %39 = getelementptr inbounds %struct.lxb_dom_node, ptr %38, i32 0, i32 3
  %40 = load i64, ptr %39, align 8
  %41 = load ptr, ptr %12, align 8
  %42 = getelementptr inbounds %struct.lxb_dom_attr, ptr %41, i32 0, i32 0
  %43 = getelementptr inbounds %struct.lxb_dom_node, ptr %42, i32 0, i32 3
  store i64 %40, ptr %43, align 8
  %44 = load ptr, ptr %6, align 8
  %45 = getelementptr inbounds %struct.lxb_html_tree, ptr %44, i32 0, i32 17
  %46 = load ptr, ptr %45, align 8
  %47 = icmp ne ptr %46, null
  br i1 %47, label %48, label %60

48:                                               ; preds = %36
  %49 = load ptr, ptr %6, align 8
  %50 = getelementptr inbounds %struct.lxb_html_tree, ptr %49, i32 0, i32 17
  %51 = load ptr, ptr %50, align 8
  %52 = load ptr, ptr %6, align 8
  %53 = load ptr, ptr %12, align 8
  %54 = call i32 %51(ptr noundef %52, ptr noundef %53, ptr noundef null)
  store i32 %54, ptr %10, align 4
  %55 = load i32, ptr %10, align 4
  %56 = icmp ne i32 %55, 0
  br i1 %56, label %57, label %59

57:                                               ; preds = %48
  %58 = load i32, ptr %10, align 4
  store i32 %58, ptr %5, align 4
  br label %68

59:                                               ; preds = %48
  br label %60

60:                                               ; preds = %59, %36
  %61 = load ptr, ptr %7, align 8
  %62 = load ptr, ptr %11, align 8
  %63 = call i32 @lxb_dom_element_attr_append(ptr noundef %61, ptr noundef %62)
  %64 = load ptr, ptr %11, align 8
  %65 = getelementptr inbounds %struct.lxb_dom_attr, ptr %64, i32 0, i32 5
  %66 = load ptr, ptr %65, align 8
  store ptr %66, ptr %11, align 8
  br label %16

67:                                               ; preds = %16
  store i32 0, ptr %5, align 4
  br label %68

68:                                               ; preds = %67, %57, %34, %27
  %69 = load i32, ptr %5, align 4
  ret i32 %69
}

; Function Attrs: nounwind uwtable
define internal ptr @lxb_html_tree_create_node(ptr noundef %0, i64 noundef %1, i64 noundef %2) #0 {
  %4 = alloca ptr, align 8
  %5 = alloca i64, align 8
  %6 = alloca i64, align 8
  store ptr %0, ptr %4, align 8
  store i64 %1, ptr %5, align 8
  store i64 %2, ptr %6, align 8
  %7 = load ptr, ptr %4, align 8
  %8 = getelementptr inbounds %struct.lxb_html_tree, ptr %7, i32 0, i32 1
  %9 = load ptr, ptr %8, align 8
  %10 = load i64, ptr %5, align 8
  %11 = load i64, ptr %6, align 8
  %12 = call ptr @lxb_html_interface_create(ptr noundef %9, i64 noundef %10, i64 noundef %11)
  ret ptr %12
}

; Function Attrs: nounwind uwtable
define hidden ptr @lxb_html_tree_create_element_for_token(ptr noundef %0, ptr noundef %1, i64 noundef %2, ptr noundef %3) #0 {
  %5 = alloca ptr, align 8
  %6 = alloca ptr, align 8
  %7 = alloca ptr, align 8
  %8 = alloca i64, align 8
  %9 = alloca ptr, align 8
  %10 = alloca ptr, align 8
  %11 = alloca i32, align 4
  %12 = alloca ptr, align 8
  store ptr %0, ptr %6, align 8
  store ptr %1, ptr %7, align 8
  store i64 %2, ptr %8, align 8
  store ptr %3, ptr %9, align 8
  %13 = load ptr, ptr %6, align 8
  %14 = load ptr, ptr %7, align 8
  %15 = getelementptr inbounds %struct.lxb_html_token_t, ptr %14, i32 0, i32 10
  %16 = load i64, ptr %15, align 8
  %17 = load i64, ptr %8, align 8
  %18 = call ptr @lxb_html_tree_create_node(ptr noundef %13, i64 noundef %16, i64 noundef %17)
  store ptr %18, ptr %10, align 8
  %19 = load ptr, ptr %10, align 8
  %20 = icmp eq ptr %19, null
  br i1 %20, label %21, label %22

21:                                               ; preds = %4
  store ptr null, ptr %5, align 8
  br label %55

22:                                               ; preds = %4
  %23 = load ptr, ptr %7, align 8
  %24 = getelementptr inbounds %struct.lxb_html_token_t, ptr %23, i32 0, i32 2
  %25 = load i64, ptr %24, align 8
  %26 = load ptr, ptr %10, align 8
  %27 = getelementptr inbounds %struct.lxb_dom_node, ptr %26, i32 0, i32 12
  store i64 %25, ptr %27, align 8
  %28 = load ptr, ptr %10, align 8
  store ptr %28, ptr %12, align 8
  %29 = load ptr, ptr %7, align 8
  %30 = getelementptr inbounds %struct.lxb_html_token_t, ptr %29, i32 0, i32 8
  %31 = load ptr, ptr %30, align 8
  %32 = icmp eq ptr %31, null
  br i1 %32, label %33, label %39

33:                                               ; preds = %22
  %34 = load ptr, ptr %6, align 8
  %35 = load ptr, ptr %12, align 8
  %36 = load ptr, ptr %7, align 8
  %37 = load i64, ptr %8, align 8
  %38 = call i32 @lxb_html_tree_append_attributes(ptr noundef %34, ptr noundef %35, ptr noundef %36, i64 noundef %37)
  store i32 %38, ptr %11, align 4
  br label %47

39:                                               ; preds = %22
  %40 = load ptr, ptr %6, align 8
  %41 = load ptr, ptr %12, align 8
  %42 = load ptr, ptr %7, align 8
  %43 = getelementptr inbounds %struct.lxb_html_token_t, ptr %42, i32 0, i32 8
  %44 = load ptr, ptr %43, align 8
  %45 = load i64, ptr %8, align 8
  %46 = call i32 @lxb_html_tree_append_attributes_from_element(ptr noundef %40, ptr noundef %41, ptr noundef %44, i64 noundef %45)
  store i32 %46, ptr %11, align 4
  br label %47

47:                                               ; preds = %39, %33
  %48 = load i32, ptr %11, align 4
  %49 = icmp ne i32 %48, 0
  br i1 %49, label %50, label %53

50:                                               ; preds = %47
  %51 = load ptr, ptr %12, align 8
  %52 = call ptr @lxb_html_interface_destroy(ptr noundef %51)
  store ptr %52, ptr %5, align 8
  br label %55

53:                                               ; preds = %47
  %54 = load ptr, ptr %10, align 8
  store ptr %54, ptr %5, align 8
  br label %55

55:                                               ; preds = %53, %50, %21
  %56 = load ptr, ptr %5, align 8
  ret ptr %56
}