; Function Attrs: nounwind uwtable
define hidden ptr @lxb_html_tree_create_element_for_token(ptr noundef %0, ptr nocapture noundef readonly %1, i64 noundef %2, ptr nocapture readnone %3) local_unnamed_addr #0 {
  %5 = getelementptr inbounds i8, ptr %1, i64 80
  %6 = load i64, ptr %5, align 8
  %7 = getelementptr i8, ptr %0, i64 8
  %.val = load ptr, ptr %7, align 8
  %8 = tail call ptr @lxb_html_interface_create(ptr noundef %.val, i64 noundef %6, i64 noundef %2) #9
  %9 = icmp eq ptr %8, null
  br i1 %9, label %lxb_html_tree_append_attributes_from_element.exit.thread25, label %10

10:                                               ; preds = %4
  %11 = getelementptr inbounds i8, ptr %1, i64 16
  %12 = load i64, ptr %11, align 8
  %13 = getelementptr inbounds i8, ptr %8, i64 96
  store i64 %12, ptr %13, align 8
  %14 = getelementptr inbounds i8, ptr %1, i64 64
  %15 = load ptr, ptr %14, align 8
  %16 = icmp eq ptr %15, null
  br i1 %16, label %lxb_html_tree_append_attributes_from_element.exit, label %17

17:                                               ; preds = %10
  %18 = getelementptr inbounds i8, ptr %15, i64 128
  %19 = getelementptr inbounds i8, ptr %8, i64 32
  %.01927.i = load ptr, ptr %18, align 8
  %.not28.i = icmp eq ptr %.01927.i, null
  br i1 %.not28.i, label %lxb_html_tree_append_attributes_from_element.exit.thread25, label %.lr.ph.i

.lr.ph.i:                                         ; preds = %17
  %20 = getelementptr inbounds i8, ptr %0, i64 104
  br label %21

21:                                               ; preds = %34, %.lr.ph.i
  %.01929.i = phi ptr [ %.01927.i, %.lr.ph.i ], [ %.019.i, %34 ]
  %22 = load ptr, ptr %19, align 8
  %23 = tail call ptr @lxb_dom_attr_interface_create(ptr noundef %22) #9
  %24 = icmp eq ptr %23, null
  br i1 %24, label %lxb_html_tree_append_attributes_from_element.exit.thread, label %25

25:                                               ; preds = %21
  %26 = tail call i32 @lxb_dom_attr_clone_name_value(ptr noundef nonnull %.01929.i, ptr noundef nonnull %23) #9
  %.not24.i = icmp eq i32 %26, 0
  br i1 %.not24.i, label %27, label %lxb_html_tree_append_attributes_from_element.exit.thread

27:                                               ; preds = %25
  %28 = getelementptr inbounds i8, ptr %.01929.i, i64 24
  %29 = load i64, ptr %28, align 8
  %30 = getelementptr inbounds i8, ptr %23, i64 24
  store i64 %29, ptr %30, align 8
  %31 = load ptr, ptr %20, align 8
  %.not25.i = icmp eq ptr %31, null
  br i1 %.not25.i, label %34, label %32

32:                                               ; preds = %27
  %33 = tail call i32 %31(ptr noundef nonnull %0, ptr noundef nonnull %23, ptr noundef null) #9
  %.not26.i = icmp eq i32 %33, 0
  br i1 %.not26.i, label %34, label %lxb_html_tree_append_attributes_from_element.exit.thread

34:                                               ; preds = %32, %27
  %35 = tail call i32 @lxb_dom_element_attr_append(ptr noundef nonnull %8, ptr noundef nonnull %.01929.i) #9
  %36 = getelementptr inbounds i8, ptr %.01929.i, i64 136
  %.019.i = load ptr, ptr %36, align 8
  %.not.i = icmp eq ptr %.019.i, null
  br i1 %.not.i, label %lxb_html_tree_append_attributes_from_element.exit.thread25, label %21

lxb_html_tree_append_attributes_from_element.exit: ; preds = %10
  %37 = tail call i32 @lxb_html_tree_append_attributes(ptr noundef nonnull %0, ptr noundef nonnull %8, ptr noundef nonnull %1, i64 noundef %2)
  %.not = icmp eq i32 %37, 0
  br i1 %.not, label %lxb_html_tree_append_attributes_from_element.exit.thread25, label %lxb_html_tree_append_attributes_from_element.exit.thread

lxb_html_tree_append_attributes_from_element.exit.thread: ; preds = %21, %25, %32, %lxb_html_tree_append_attributes_from_element.exit
  %38 = tail call ptr @lxb_html_interface_destroy(ptr noundef nonnull %8) #9
  br label %lxb_html_tree_append_attributes_from_element.exit.thread25

lxb_html_tree_append_attributes_from_element.exit.thread25: ; preds = %34, %17, %lxb_html_tree_append_attributes_from_element.exit, %4, %lxb_html_tree_append_attributes_from_element.exit.thread
  %.0 = phi ptr [ %38, %lxb_html_tree_append_attributes_from_element.exit.thread ], [ null, %4 ], [ %8, %lxb_html_tree_append_attributes_from_element.exit ], [ %8, %17 ], [ %8, %34 ]
  ret ptr %.0
}